target datalayout = "e-m:e-p270:32:32-p271:32:32-p272:64:64-i64:64-i128:128-f80:128-n8:16:32:64-S128"
target triple = "x86_64-pc-linux-gnu"

%struct.shape_functions = type { ptr, ptr, ptr, ptr, ptr, ptr }
%struct.pointf_s = type { double, double }
%struct.Agobj_s = type { %struct.Agtag_s, ptr }
%struct.Agtag_s = type { i32, i64 }
%struct.Agnodeinfo_t = type { %struct.Agrec_s, ptr, ptr, %struct.pointf_s, double, double, %struct.boxf, double, double, double, double, double, ptr, ptr, ptr, i8, i8, i8, i8, i32, i32, i32, ptr, double, i8, i8, ptr, ptr, i8, i64, i8, i8, i8, ptr, ptr, %struct.elist, %struct.elist, %struct.elist, %struct.elist, %struct.elist, ptr, i32, ptr, i32, i32, double, %struct.elist, %struct.elist, %struct.elist, %struct.elist, ptr, i32, i32, i32, [1 x double] }
%struct.Agrec_s = type { ptr, ptr }
%struct.boxf = type { %struct.pointf_s, %struct.pointf_s }
%struct.elist = type { ptr, i64 }
%struct.shape_desc = type { ptr, ptr, ptr, i8 }

; Function Attrs: nounwind uwtable
define zeroext i1 @isPolygon(ptr noundef %0) #0 {
  %2 = alloca ptr, align 8
  store ptr %0, ptr %2, align 8, !tbaa !35
  %3 = load ptr, ptr %2, align 8, !tbaa !35
  %4 = getelementptr inbounds nuw %struct.Agobj_s, ptr %3, i32 0, i32 1
  %5 = load ptr, ptr %4, align 8, !tbaa !37
  %6 = getelementptr inbounds nuw %struct.Agnodeinfo_t, ptr %5, i32 0, i32 1
  %7 = load ptr, ptr %6, align 8, !tbaa !41
  %8 = icmp ne ptr %7, null
  br i1 %8, label %9, label %20

9:                                                ; preds = %1
  %10 = load ptr, ptr %2, align 8, !tbaa !35
  %11 = getelementptr inbounds nuw %struct.Agobj_s, ptr %10, i32 0, i32 1
  %12 = load ptr, ptr %11, align 8, !tbaa !37
  %13 = getelementptr inbounds nuw %struct.Agnodeinfo_t, ptr %12, i32 0, i32 1
  %14 = load ptr, ptr %13, align 8, !tbaa !41
  %15 = getelementptr inbounds nuw %struct.shape_desc, ptr %14, i32 0, i32 1
  %16 = load ptr, ptr %15, align 8, !tbaa !54
  %17 = getelementptr inbounds nuw %struct.shape_functions, ptr %16, i32 0, i32 0
  %18 = load ptr, ptr %17, align 8, !tbaa !58
  %19 = icmp eq ptr %18, @poly_init
  br label %20

20:                                               ; preds = %9, %1
  %21 = phi i1 [ false, %1 ], [ %19, %9 ]
  ret i1 %21
}